target datalayout = "e-m:e-p270:32:32-p271:32:32-p272:64:64-i64:64-i128:128-f80:128-n8:16:32:64-S128"
target triple = "x86_64-pc-linux-gnu"

%"struct.base::File::Info" = type { i64, i8, i8, %"class.base::Time", %"class.base::Time", %"class.base::Time" }
%"class.base::Time" = type { %"class.base::time_internal::TimeBase" }
%"class.base::time_internal::TimeBase" = type { i64 }

; Function Attrs: mustprogress uwtable
define noundef zeroext i1 @_ZN4base11GetFileSizeERKNS_8FilePathEPl(ptr noundef nonnull align 8 dereferenceable(32) %0, ptr noundef %1) #0 personality ptr @__gxx_personality_v0 {
  %3 = alloca i1, align 1
  %4 = alloca ptr, align 8
  %5 = alloca ptr, align 8
  %6 = alloca %"struct.base::File::Info", align 8
  %7 = alloca ptr, align 8
  %8 = alloca i32, align 4
  %9 = alloca i32, align 4
  store ptr %0, ptr %4, align 8, !tbaa !3
  store ptr %1, ptr %5, align 8, !tbaa !44
  call void @llvm.lifetime.start.p0(i64 40, ptr %6) #14
  call void @_ZN4base4File4InfoC1Ev(ptr noundef nonnull align 8 dereferenceable(40) %6)
  %10 = load ptr, ptr %4, align 8, !tbaa !3
  %11 = invoke noundef zeroext i1 @_ZN4base11GetFileInfoERKNS_8FilePathEPNS_4File4InfoE(ptr noundef nonnull align 8 dereferenceable(32) %10, ptr noundef %6)
          to label %12 unwind label %14

12:                                               ; preds = %2
  br i1 %11, label %18, label %13

13:                                               ; preds = %12
  store i1 false, ptr %3, align 1
  store i32 1, ptr %9, align 4
  br label %22

14:                                               ; preds = %2
  %15 = landingpad { ptr, i32 }
          cleanup
  %16 = extractvalue { ptr, i32 } %15, 0
  store ptr %16, ptr %7, align 8
  %17 = extractvalue { ptr, i32 } %15, 1
  store i32 %17, ptr %8, align 4
  call void @_ZN4base4File4InfoD1Ev(ptr noundef nonnull align 8 dereferenceable(40) %6) #14
  call void @llvm.lifetime.end.p0(i64 40, ptr %6) #14
  br label %24

18:                                               ; preds = %12
  %19 = getelementptr inbounds nuw %"struct.base::File::Info", ptr %6, i32 0, i32 0
  %20 = load i64, ptr %19, align 8, !tbaa !48
  %21 = load ptr, ptr %5, align 8, !tbaa !44
  store i64 %20, ptr %21, align 8, !tbaa !8
  store i1 true, ptr %3, align 1
  store i32 1, ptr %9, align 4
  br label %22

22:                                               ; preds = %18, %13
  call void @_ZN4base4File4InfoD1Ev(ptr noundef nonnull align 8 dereferenceable(40) %6) #14
  call void @llvm.lifetime.end.p0(i64 40, ptr %6) #14
  %23 = load i1, ptr %3, align 1
  ret i1 %23

24:                                               ; preds = %14
  %25 = load ptr, ptr %7, align 8
  %26 = load i32, ptr %8, align 4
  %27 = insertvalue { ptr, i32 } poison, ptr %25, 0
  %28 = insertvalue { ptr, i32 } %27, i32 %26, 1
  resume { ptr, i32 } %28
}