; Function Attrs: mustprogress uwtable
define noundef zeroext i1 @_ZN4base11GetFileSizeERKNS_8FilePathEPl(ptr noundef nonnull align 8 dereferenceable(32) %0, ptr noundef writeonly captures(none) %1) local_unnamed_addr #0 personality ptr @__gxx_personality_v0 {
  %3 = alloca %"struct.base::File::Info", align 8
  call void @llvm.lifetime.start.p0(i64 40, ptr nonnull %3) #16
  call void @_ZN4base4File4InfoC1Ev(ptr noundef nonnull align 8 dereferenceable(40) %3)
  %4 = invoke noundef zeroext i1 @_ZN4base11GetFileInfoERKNS_8FilePathEPNS_4File4InfoE(ptr noundef nonnull align 8 dereferenceable(32) %0, ptr noundef nonnull %3)
          to label %5 unwind label %6

5:                                                ; preds = %2
  br i1 %4, label %8, label %10

6:                                                ; preds = %2
  %7 = landingpad { ptr, i32 }
          cleanup
  call void @_ZN4base4File4InfoD1Ev(ptr noundef nonnull align 8 dereferenceable(40) %3) #16
  call void @llvm.lifetime.end.p0(i64 40, ptr nonnull %3) #16
  resume { ptr, i32 } %7

8:                                                ; preds = %5
  %9 = load i64, ptr %3, align 8, !tbaa !46
  store i64 %9, ptr %1, align 8, !tbaa !50
  br label %10

10:                                               ; preds = %5, %8
  call void @_ZN4base4File4InfoD1Ev(ptr noundef nonnull align 8 dereferenceable(40) %3) #16
  call void @llvm.lifetime.end.p0(i64 40, ptr nonnull %3) #16
  ret i1 %4
}